; Function Attrs: nounwind uwtable
define dso_local range(i32 0, 9203) i32 @data_retrieve_dict_path_int(ptr noundef %0, ptr noundef %1, ptr noundef captures(address_is_null) %2) local_unnamed_addr #0 {
  %4 = tail call ptr @data_resolve_dict_path_const(ptr noundef %0, ptr noundef %1)
  %.not = icmp eq ptr %4, null
  br i1 %.not, label %15, label %5

5:                                                ; preds = %3
  %6 = tail call i32 @data_get_int_converted(ptr noundef nonnull %4, ptr noundef %2)
  %7 = load i64, ptr getelementptr inbounds nuw (i8, ptr @slurm_conf, i64 320), align 8
  %8 = and i64 %7, 256
  %.not11 = icmp eq i64 %8, 0
  br i1 %.not11, label %15, label %9

9:                                                ; preds = %5
  %10 = tail call i32 @get_log_level() #16
  %11 = icmp sgt i32 %10, 3
  br i1 %11, label %12, label %15

12:                                               ; preds = %9
  %13 = load i64, ptr %2, align 8
  %14 = tail call ptr @slurm_strerror(i32 noundef %6) #16
  tail call void (i32, ptr, ...) @log_var(i32 noundef 4, ptr noundef nonnull @.str.62, ptr noundef nonnull @__func__.data_retrieve_dict_path_int, ptr noundef %0, ptr noundef %1, i64 noundef %13, ptr noundef %14) #16
  br label %15

15:                                               ; preds = %5, %12, %9, %3
  %.0 = phi i32 [ 9200, %3 ], [ %6, %9 ], [ %6, %12 ], [ %6, %5 ]
  ret i32 %.0
}